target datalayout = "e-m:e-p270:32:32-p271:32:32-p272:64:64-i64:64-i128:128-f80:128-n8:16:32:64-S128"
target triple = "x86_64-pc-linux-gnu"

%struct.ZSTD_MatchState_t = type { %struct.ZSTD_window_t, i32, i32, i32, i32, ptr, [8 x i32], i64, i32, ptr, ptr, ptr, i32, i32, %struct.optState_t, ptr, %struct.ZSTD_compressionParameters, ptr, i32, i32 }
%struct.ZSTD_window_t = type { ptr, ptr, ptr, i32, i32, i32 }
%struct.optState_t = type { ptr, ptr, ptr, ptr, ptr, ptr, i32, i32, i32, i32, i32, i32, i32, i32, i32, ptr, i32 }
%struct.ZSTD_compressionParameters = type { i32, i32, i32, i32, i32, i32, i32 }

; Function Attrs: inlinehint nounwind uwtable
define internal i64 @MEM_swap64(i64 noundef %0) #3 {
  %2 = alloca i64, align 8
  store i64 %0, ptr %2, align 8, !tbaa !39
  %3 = load i64, ptr %2, align 8, !tbaa !39
  %4 = call i64 @llvm.bswap.i64(i64 %3)
  ret i64 %4
}

; Function Attrs: inlinehint nounwind uwtable
define internal i64 @MEM_read64(ptr noundef %0) #3 {
  %2 = alloca ptr, align 8
  store ptr %0, ptr %2, align 8, !tbaa !36
  %3 = load ptr, ptr %2, align 8, !tbaa !36
  %4 = load i64, ptr %3, align 1, !tbaa !39
  ret i64 %4
}

; Function Attrs: inlinehint nounwind uwtable
define internal i32 @MEM_swap32(i32 noundef %0) #3 {
  %2 = alloca i32, align 4
  store i32 %0, ptr %2, align 4, !tbaa !18
  %3 = load i32, ptr %2, align 4, !tbaa !18
  %4 = call i32 @llvm.bswap.i32(i32 %3)
  ret i32 %4
}

; Function Attrs: inlinehint nounwind uwtable
define internal i32 @MEM_read32(ptr noundef %0) #3 {
  %2 = alloca ptr, align 8
  store ptr %0, ptr %2, align 8, !tbaa !36
  %3 = load ptr, ptr %2, align 8, !tbaa !36
  %4 = load i32, ptr %3, align 1, !tbaa !18
  ret i32 %4
}

; Function Attrs: inlinehint nounwind uwtable
define internal i32 @MEM_isLittleEndian() #3 {
  ret i32 1
}

; Function Attrs: nounwind uwtable
define internal i64 @ZSTD_hash8(i64 noundef %0, i32 noundef %1, i64 noundef %2) #0 {
  %4 = alloca i64, align 8
  %5 = alloca i32, align 4
  %6 = alloca i64, align 8
  store i64 %0, ptr %4, align 8, !tbaa !39
  store i32 %1, ptr %5, align 4, !tbaa !18
  store i64 %2, ptr %6, align 8, !tbaa !39
  %7 = load i64, ptr %4, align 8, !tbaa !39
  %8 = mul i64 %7, -3523014627327384477
  %9 = load i64, ptr %6, align 8, !tbaa !39
  %10 = xor i64 %8, %9
  %11 = load i32, ptr %5, align 4, !tbaa !18
  %12 = sub i32 64, %11
  %13 = zext i32 %12 to i64
  %14 = lshr i64 %10, %13
  ret i64 %14
}

; Function Attrs: nounwind uwtable
define internal i64 @ZSTD_hash7(i64 noundef %0, i32 noundef %1, i64 noundef %2) #0 {
  %4 = alloca i64, align 8
  %5 = alloca i32, align 4
  %6 = alloca i64, align 8
  store i64 %0, ptr %4, align 8, !tbaa !39
  store i32 %1, ptr %5, align 4, !tbaa !18
  store i64 %2, ptr %6, align 8, !tbaa !39
  %7 = load i64, ptr %4, align 8, !tbaa !39
  %8 = shl i64 %7, 8
  %9 = mul i64 %8, 58295818150454627
  %10 = load i64, ptr %6, align 8, !tbaa !39
  %11 = xor i64 %9, %10
  %12 = load i32, ptr %5, align 4, !tbaa !18
  %13 = sub i32 64, %12
  %14 = zext i32 %13 to i64
  %15 = lshr i64 %11, %14
  ret i64 %15
}

; Function Attrs: nounwind uwtable
define internal i64 @ZSTD_hash6(i64 noundef %0, i32 noundef %1, i64 noundef %2) #0 {
  %4 = alloca i64, align 8
  %5 = alloca i32, align 4
  %6 = alloca i64, align 8
  store i64 %0, ptr %4, align 8, !tbaa !39
  store i32 %1, ptr %5, align 4, !tbaa !18
  store i64 %2, ptr %6, align 8, !tbaa !39
  %7 = load i64, ptr %4, align 8, !tbaa !39
  %8 = shl i64 %7, 16
  %9 = mul i64 %8, 227718039650203
  %10 = load i64, ptr %6, align 8, !tbaa !39
  %11 = xor i64 %9, %10
  %12 = load i32, ptr %5, align 4, !tbaa !18
  %13 = sub i32 64, %12
  %14 = zext i32 %13 to i64
  %15 = lshr i64 %11, %14
  ret i64 %15
}

; Function Attrs: nounwind uwtable
define internal i64 @ZSTD_hash5(i64 noundef %0, i32 noundef %1, i64 noundef %2) #0 {
  %4 = alloca i64, align 8
  %5 = alloca i32, align 4
  %6 = alloca i64, align 8
  store i64 %0, ptr %4, align 8, !tbaa !39
  store i32 %1, ptr %5, align 4, !tbaa !18
  store i64 %2, ptr %6, align 8, !tbaa !39
  %7 = load i64, ptr %4, align 8, !tbaa !39
  %8 = shl i64 %7, 24
  %9 = mul i64 %8, 889523592379
  %10 = load i64, ptr %6, align 8, !tbaa !39
  %11 = xor i64 %9, %10
  %12 = load i32, ptr %5, align 4, !tbaa !18
  %13 = sub i32 64, %12
  %14 = zext i32 %13 to i64
  %15 = lshr i64 %11, %14
  ret i64 %15
}

; Function Attrs: inlinehint nounwind uwtable
define internal i64 @MEM_readLE64(ptr noundef %0) #3 {
  %2 = alloca i64, align 8
  %3 = alloca ptr, align 8
  store ptr %0, ptr %3, align 8, !tbaa !36
  %4 = call i32 @MEM_isLittleEndian()
  %5 = icmp ne i32 %4, 0
  br i1 %5, label %6, label %9

6:                                                ; preds = %1
  %7 = load ptr, ptr %3, align 8, !tbaa !36
  %8 = call i64 @MEM_read64(ptr noundef %7)
  store i64 %8, ptr %2, align 8
  br label %13

9:                                                ; preds = %1
  %10 = load ptr, ptr %3, align 8, !tbaa !36
  %11 = call i64 @MEM_read64(ptr noundef %10)
  %12 = call i64 @MEM_swap64(i64 noundef %11)
  store i64 %12, ptr %2, align 8
  br label %13

13:                                               ; preds = %9, %6
  %14 = load i64, ptr %2, align 8
  ret i64 %14
}

; Function Attrs: nounwind uwtable
define internal i32 @ZSTD_hash4(i32 noundef %0, i32 noundef %1, i32 noundef %2) #0 {
  %4 = alloca i32, align 4
  %5 = alloca i32, align 4
  %6 = alloca i32, align 4
  store i32 %0, ptr %4, align 4, !tbaa !18
  store i32 %1, ptr %5, align 4, !tbaa !18
  store i32 %2, ptr %6, align 4, !tbaa !18
  %7 = load i32, ptr %4, align 4, !tbaa !18
  %8 = mul i32 %7, -1640531535
  %9 = load i32, ptr %6, align 4, !tbaa !18
  %10 = xor i32 %8, %9
  %11 = load i32, ptr %5, align 4, !tbaa !18
  %12 = sub i32 32, %11
  %13 = lshr i32 %10, %12
  ret i32 %13
}

; Function Attrs: inlinehint nounwind uwtable
define internal i32 @MEM_readLE32(ptr noundef %0) #3 {
  %2 = alloca i32, align 4
  %3 = alloca ptr, align 8
  store ptr %0, ptr %3, align 8, !tbaa !36
  %4 = call i32 @MEM_isLittleEndian()
  %5 = icmp ne i32 %4, 0
  br i1 %5, label %6, label %9

6:                                                ; preds = %1
  %7 = load ptr, ptr %3, align 8, !tbaa !36
  %8 = call i32 @MEM_read32(ptr noundef %7)
  store i32 %8, ptr %2, align 4
  br label %13

9:                                                ; preds = %1
  %10 = load ptr, ptr %3, align 8, !tbaa !36
  %11 = call i32 @MEM_read32(ptr noundef %10)
  %12 = call i32 @MEM_swap32(i32 noundef %11)
  store i32 %12, ptr %2, align 4
  br label %13

13:                                               ; preds = %9, %6
  %14 = load i32, ptr %2, align 4
  ret i32 %14
}

; Function Attrs: nounwind uwtable
define internal i64 @ZSTD_hash8Ptr(ptr noundef %0, i32 noundef %1) #0 {
  %3 = alloca ptr, align 8
  %4 = alloca i32, align 4
  store ptr %0, ptr %3, align 8, !tbaa !36
  store i32 %1, ptr %4, align 4, !tbaa !18
  %5 = load ptr, ptr %3, align 8, !tbaa !36
  %6 = call i64 @MEM_readLE64(ptr noundef %5)
  %7 = load i32, ptr %4, align 4, !tbaa !18
  %8 = call i64 @ZSTD_hash8(i64 noundef %6, i32 noundef %7, i64 noundef 0)
  ret i64 %8
}

; Function Attrs: nounwind uwtable
define internal i64 @ZSTD_hash7Ptr(ptr noundef %0, i32 noundef %1) #0 {
  %3 = alloca ptr, align 8
  %4 = alloca i32, align 4
  store ptr %0, ptr %3, align 8, !tbaa !36
  store i32 %1, ptr %4, align 4, !tbaa !18
  %5 = load ptr, ptr %3, align 8, !tbaa !36
  %6 = call i64 @MEM_readLE64(ptr noundef %5)
  %7 = load i32, ptr %4, align 4, !tbaa !18
  %8 = call i64 @ZSTD_hash7(i64 noundef %6, i32 noundef %7, i64 noundef 0)
  ret i64 %8
}

; Function Attrs: nounwind uwtable
define internal i64 @ZSTD_hash6Ptr(ptr noundef %0, i32 noundef %1) #0 {
  %3 = alloca ptr, align 8
  %4 = alloca i32, align 4
  store ptr %0, ptr %3, align 8, !tbaa !36
  store i32 %1, ptr %4, align 4, !tbaa !18
  %5 = load ptr, ptr %3, align 8, !tbaa !36
  %6 = call i64 @MEM_readLE64(ptr noundef %5)
  %7 = load i32, ptr %4, align 4, !tbaa !18
  %8 = call i64 @ZSTD_hash6(i64 noundef %6, i32 noundef %7, i64 noundef 0)
  ret i64 %8
}

; Function Attrs: nounwind uwtable
define internal i64 @ZSTD_hash5Ptr(ptr noundef %0, i32 noundef %1) #0 {
  %3 = alloca ptr, align 8
  %4 = alloca i32, align 4
  store ptr %0, ptr %3, align 8, !tbaa !36
  store i32 %1, ptr %4, align 4, !tbaa !18
  %5 = load ptr, ptr %3, align 8, !tbaa !36
  %6 = call i64 @MEM_readLE64(ptr noundef %5)
  %7 = load i32, ptr %4, align 4, !tbaa !18
  %8 = call i64 @ZSTD_hash5(i64 noundef %6, i32 noundef %7, i64 noundef 0)
  ret i64 %8
}

; Function Attrs: nounwind uwtable
define internal i64 @ZSTD_hash4Ptr(ptr noundef %0, i32 noundef %1) #0 {
  %3 = alloca ptr, align 8
  %4 = alloca i32, align 4
  store ptr %0, ptr %3, align 8, !tbaa !36
  store i32 %1, ptr %4, align 4, !tbaa !18
  %5 = load ptr, ptr %3, align 8, !tbaa !36
  %6 = call i32 @MEM_readLE32(ptr noundef %5)
  %7 = load i32, ptr %4, align 4, !tbaa !18
  %8 = call i32 @ZSTD_hash4(i32 noundef %6, i32 noundef %7, i32 noundef 0)
  %9 = zext i32 %8 to i64
  ret i64 %9
}

; Function Attrs: alwaysinline nounwind uwtable
define internal i64 @ZSTD_hashPtr(ptr noundef %0, i32 noundef %1, i32 noundef %2) #2 {
  %4 = alloca i64, align 8
  %5 = alloca ptr, align 8
  %6 = alloca i32, align 4
  %7 = alloca i32, align 4
  store ptr %0, ptr %5, align 8, !tbaa !36
  store i32 %1, ptr %6, align 4, !tbaa !18
  store i32 %2, ptr %7, align 4, !tbaa !18
  %8 = load i32, ptr %7, align 4, !tbaa !18
  switch i32 %8, label %9 [
    i32 4, label %10
    i32 5, label %14
    i32 6, label %18
    i32 7, label %22
    i32 8, label %26
  ]

9:                                                ; preds = %3
  br label %10

10:                                               ; preds = %3, %9
  %11 = load ptr, ptr %5, align 8, !tbaa !36
  %12 = load i32, ptr %6, align 4, !tbaa !18
  %13 = call i64 @ZSTD_hash4Ptr(ptr noundef %11, i32 noundef %12)
  store i64 %13, ptr %4, align 8
  br label %30

14:                                               ; preds = %3
  %15 = load ptr, ptr %5, align 8, !tbaa !36
  %16 = load i32, ptr %6, align 4, !tbaa !18
  %17 = call i64 @ZSTD_hash5Ptr(ptr noundef %15, i32 noundef %16)
  store i64 %17, ptr %4, align 8
  br label %30

18:                                               ; preds = %3
  %19 = load ptr, ptr %5, align 8, !tbaa !36
  %20 = load i32, ptr %6, align 4, !tbaa !18
  %21 = call i64 @ZSTD_hash6Ptr(ptr noundef %19, i32 noundef %20)
  store i64 %21, ptr %4, align 8
  br label %30

22:                                               ; preds = %3
  %23 = load ptr, ptr %5, align 8, !tbaa !36
  %24 = load i32, ptr %6, align 4, !tbaa !18
  %25 = call i64 @ZSTD_hash7Ptr(ptr noundef %23, i32 noundef %24)
  store i64 %25, ptr %4, align 8
  br label %30

26:                                               ; preds = %3
  %27 = load ptr, ptr %5, align 8, !tbaa !36
  %28 = load i32, ptr %6, align 4, !tbaa !18
  %29 = call i64 @ZSTD_hash8Ptr(ptr noundef %27, i32 noundef %28)
  store i64 %29, ptr %4, align 8
  br label %30

30:                                               ; preds = %26, %22, %18, %14, %10
  %31 = load i64, ptr %4, align 8
  ret i64 %31
}

; Function Attrs: nounwind uwtable
define internal void @ZSTD_updateDUBT(ptr noundef %0, ptr noundef %1, ptr noundef %2, i32 noundef %3) #0 {
  %5 = alloca ptr, align 8
  %6 = alloca ptr, align 8
  %7 = alloca ptr, align 8
  %8 = alloca i32, align 4
  %9 = alloca ptr, align 8
  %10 = alloca ptr, align 8
  %11 = alloca i32, align 4
  %12 = alloca ptr, align 8
  %13 = alloca i32, align 4
  %14 = alloca i32, align 4
  %15 = alloca ptr, align 8
  %16 = alloca i32, align 4
  %17 = alloca i32, align 4
  %18 = alloca i64, align 8
  %19 = alloca i32, align 4
  %20 = alloca ptr, align 8
  %21 = alloca ptr, align 8
  store ptr %0, ptr %5, align 8, !tbaa !3
  store ptr %1, ptr %6, align 8, !tbaa !8
  store ptr %2, ptr %7, align 8, !tbaa !8
  store i32 %3, ptr %8, align 4, !tbaa !18
  call void @llvm.lifetime.start.p0(i64 8, ptr %9) #12
  %22 = load ptr, ptr %5, align 8, !tbaa !3
  %23 = getelementptr inbounds nuw %struct.ZSTD_MatchState_t, ptr %22, i32 0, i32 16
  store ptr %23, ptr %9, align 8, !tbaa !36
  call void @llvm.lifetime.start.p0(i64 8, ptr %10) #12
  %24 = load ptr, ptr %5, align 8, !tbaa !3
  %25 = getelementptr inbounds nuw %struct.ZSTD_MatchState_t, ptr %24, i32 0, i32 9
  %26 = load ptr, ptr %25, align 8, !tbaa !19
  store ptr %26, ptr %10, align 8, !tbaa !20
  call void @llvm.lifetime.start.p0(i64 4, ptr %11) #12
  %27 = load ptr, ptr %9, align 8, !tbaa !36
  %28 = getelementptr inbounds nuw %struct.ZSTD_compressionParameters, ptr %27, i32 0, i32 2
  %29 = load i32, ptr %28, align 4, !tbaa !37
  store i32 %29, ptr %11, align 4, !tbaa !18
  call void @llvm.lifetime.start.p0(i64 8, ptr %12) #12
  %30 = load ptr, ptr %5, align 8, !tbaa !3
  %31 = getelementptr inbounds nuw %struct.ZSTD_MatchState_t, ptr %30, i32 0, i32 11
  %32 = load ptr, ptr %31, align 8, !tbaa !21
  store ptr %32, ptr %12, align 8, !tbaa !20
  call void @llvm.lifetime.start.p0(i64 4, ptr %13) #12
  %33 = load ptr, ptr %9, align 8, !tbaa !36
  %34 = getelementptr inbounds nuw %struct.ZSTD_compressionParameters, ptr %33, i32 0, i32 1
  %35 = load i32, ptr %34, align 4, !tbaa !38
  %36 = sub i32 %35, 1
  store i32 %36, ptr %13, align 4, !tbaa !18
  call void @llvm.lifetime.start.p0(i64 4, ptr %14) #12
  %37 = load i32, ptr %13, align 4, !tbaa !18
  %38 = shl i32 1, %37
  %39 = sub nsw i32 %38, 1
  store i32 %39, ptr %14, align 4, !tbaa !18
  call void @llvm.lifetime.start.p0(i64 8, ptr %15) #12
  %40 = load ptr, ptr %5, align 8, !tbaa !3
  %41 = getelementptr inbounds nuw %struct.ZSTD_MatchState_t, ptr %40, i32 0, i32 0
  %42 = getelementptr inbounds nuw %struct.ZSTD_window_t, ptr %41, i32 0, i32 1
  %43 = load ptr, ptr %42, align 8, !tbaa !10
  store ptr %43, ptr %15, align 8, !tbaa !8
  call void @llvm.lifetime.start.p0(i64 4, ptr %16) #12
  %44 = load ptr, ptr %6, align 8, !tbaa !8
  %45 = load ptr, ptr %15, align 8, !tbaa !8
  %46 = ptrtoint ptr %44 to i64
  %47 = ptrtoint ptr %45 to i64
  %48 = sub i64 %46, %47
  %49 = trunc i64 %48 to i32
  store i32 %49, ptr %16, align 4, !tbaa !18
  call void @llvm.lifetime.start.p0(i64 4, ptr %17) #12
  %50 = load ptr, ptr %5, align 8, !tbaa !3
  %51 = getelementptr inbounds nuw %struct.ZSTD_MatchState_t, ptr %50, i32 0, i32 2
  %52 = load i32, ptr %51, align 4, !tbaa !23
  store i32 %52, ptr %17, align 4, !tbaa !18
  %53 = load i32, ptr %17, align 4, !tbaa !18
  %54 = load i32, ptr %16, align 4, !tbaa !18
  %55 = icmp ne i32 %53, %54
  br i1 %55, label %56, label %60

56:                                               ; preds = %4
  br label %57

57:                                               ; preds = %56
  br label %58

58:                                               ; preds = %57
  br label %59

59:                                               ; preds = %58
  br label %60

60:                                               ; preds = %59, %4
  br label %61

61:                                               ; preds = %96, %60
  %62 = load i32, ptr %17, align 4, !tbaa !18
  %63 = load i32, ptr %16, align 4, !tbaa !18
  %64 = icmp ult i32 %62, %63
  br i1 %64, label %65, label %99

65:                                               ; preds = %61
  call void @llvm.lifetime.start.p0(i64 8, ptr %18) #12
  %66 = load ptr, ptr %15, align 8, !tbaa !8
  %67 = load i32, ptr %17, align 4, !tbaa !18
  %68 = zext i32 %67 to i64
  %69 = getelementptr inbounds nuw i8, ptr %66, i64 %68
  %70 = load i32, ptr %11, align 4, !tbaa !18
  %71 = load i32, ptr %8, align 4, !tbaa !18
  %72 = call i64 @ZSTD_hashPtr(ptr noundef %69, i32 noundef %70, i32 noundef %71)
  store i64 %72, ptr %18, align 8, !tbaa !39
  call void @llvm.lifetime.start.p0(i64 4, ptr %19) #12
  %73 = load ptr, ptr %10, align 8, !tbaa !20
  %74 = load i64, ptr %18, align 8, !tbaa !39
  %75 = getelementptr inbounds nuw i32, ptr %73, i64 %74
  %76 = load i32, ptr %75, align 4, !tbaa !18
  store i32 %76, ptr %19, align 4, !tbaa !18
  call void @llvm.lifetime.start.p0(i64 8, ptr %20) #12
  %77 = load ptr, ptr %12, align 8, !tbaa !20
  %78 = load i32, ptr %17, align 4, !tbaa !18
  %79 = load i32, ptr %14, align 4, !tbaa !18
  %80 = and i32 %78, %79
  %81 = mul i32 2, %80
  %82 = zext i32 %81 to i64
  %83 = getelementptr inbounds nuw i32, ptr %77, i64 %82
  store ptr %83, ptr %20, align 8, !tbaa !20
  call void @llvm.lifetime.start.p0(i64 8, ptr %21) #12
  %84 = load ptr, ptr %20, align 8, !tbaa !20
  %85 = getelementptr inbounds i32, ptr %84, i64 1
  store ptr %85, ptr %21, align 8, !tbaa !20
  br label %86

86:                                               ; preds = %65
  br label %87

87:                                               ; preds = %86
  br label %88

88:                                               ; preds = %87
  %89 = load i32, ptr %17, align 4, !tbaa !18
  %90 = load ptr, ptr %10, align 8, !tbaa !20
  %91 = load i64, ptr %18, align 8, !tbaa !39
  %92 = getelementptr inbounds nuw i32, ptr %90, i64 %91
  store i32 %89, ptr %92, align 4, !tbaa !18
  %93 = load i32, ptr %19, align 4, !tbaa !18
  %94 = load ptr, ptr %20, align 8, !tbaa !20
  store i32 %93, ptr %94, align 4, !tbaa !18
  %95 = load ptr, ptr %21, align 8, !tbaa !20
  store i32 1, ptr %95, align 4, !tbaa !18
  call void @llvm.lifetime.end.p0(i64 8, ptr %21) #12
  call void @llvm.lifetime.end.p0(i64 8, ptr %20) #12
  call void @llvm.lifetime.end.p0(i64 4, ptr %19) #12
  call void @llvm.lifetime.end.p0(i64 8, ptr %18) #12
  br label %96

96:                                               ; preds = %88
  %97 = load i32, ptr %17, align 4, !tbaa !18
  %98 = add i32 %97, 1
  store i32 %98, ptr %17, align 4, !tbaa !18
  br label %61, !llvm.loop !81

99:                                               ; preds = %61
  %100 = load i32, ptr %16, align 4, !tbaa !18
  %101 = load ptr, ptr %5, align 8, !tbaa !3
  %102 = getelementptr inbounds nuw %struct.ZSTD_MatchState_t, ptr %101, i32 0, i32 2
  store i32 %100, ptr %102, align 4, !tbaa !23
  call void @llvm.lifetime.end.p0(i64 4, ptr %17) #12
  call void @llvm.lifetime.end.p0(i64 4, ptr %16) #12
  call void @llvm.lifetime.end.p0(i64 8, ptr %15) #12
  call void @llvm.lifetime.end.p0(i64 4, ptr %14) #12
  call void @llvm.lifetime.end.p0(i64 4, ptr %13) #12
  call void @llvm.lifetime.end.p0(i64 8, ptr %12) #12
  call void @llvm.lifetime.end.p0(i64 4, ptr %11) #12
  call void @llvm.lifetime.end.p0(i64 8, ptr %10) #12
  call void @llvm.lifetime.end.p0(i64 8, ptr %9) #12
  ret void
}

; Function Attrs: alwaysinline nounwind uwtable
define internal i64 @ZSTD_BtFindBestMatch(ptr noundef %0, ptr noundef %1, ptr noundef %2, ptr noundef %3, i32 noundef %4, i32 noundef %5) #2 {
  %7 = alloca i64, align 8
  %8 = alloca ptr, align 8
  %9 = alloca ptr, align 8
  %10 = alloca ptr, align 8
  %11 = alloca ptr, align 8
  %12 = alloca i32, align 4
  %13 = alloca i32, align 4
  store ptr %0, ptr %8, align 8, !tbaa !3
  store ptr %1, ptr %9, align 8, !tbaa !8
  store ptr %2, ptr %10, align 8, !tbaa !8
  store ptr %3, ptr %11, align 8, !tbaa !66
  store i32 %4, ptr %12, align 4, !tbaa !18
  store i32 %5, ptr %13, align 4, !tbaa !18
  br label %14

14:                                               ; preds = %6
  br label %15

15:                                               ; preds = %14
  %16 = load ptr, ptr %9, align 8, !tbaa !8
  %17 = load ptr, ptr %8, align 8, !tbaa !3
  %18 = getelementptr inbounds nuw %struct.ZSTD_MatchState_t, ptr %17, i32 0, i32 0
  %19 = getelementptr inbounds nuw %struct.ZSTD_window_t, ptr %18, i32 0, i32 1
  %20 = load ptr, ptr %19, align 8, !tbaa !10
  %21 = load ptr, ptr %8, align 8, !tbaa !3
  %22 = getelementptr inbounds nuw %struct.ZSTD_MatchState_t, ptr %21, i32 0, i32 2
  %23 = load i32, ptr %22, align 4, !tbaa !23
  %24 = zext i32 %23 to i64
  %25 = getelementptr inbounds nuw i8, ptr %20, i64 %24
  %26 = icmp ult ptr %16, %25
  br i1 %26, label %27, label %28

27:                                               ; preds = %15
  store i64 0, ptr %7, align 8
  br label %40

28:                                               ; preds = %15
  %29 = load ptr, ptr %8, align 8, !tbaa !3
  %30 = load ptr, ptr %9, align 8, !tbaa !8
  %31 = load ptr, ptr %10, align 8, !tbaa !8
  %32 = load i32, ptr %12, align 4, !tbaa !18
  call void @ZSTD_updateDUBT(ptr noundef %29, ptr noundef %30, ptr noundef %31, i32 noundef %32)
  %33 = load ptr, ptr %8, align 8, !tbaa !3
  %34 = load ptr, ptr %9, align 8, !tbaa !8
  %35 = load ptr, ptr %10, align 8, !tbaa !8
  %36 = load ptr, ptr %11, align 8, !tbaa !66
  %37 = load i32, ptr %12, align 4, !tbaa !18
  %38 = load i32, ptr %13, align 4, !tbaa !18
  %39 = call i64 @ZSTD_DUBT_findBestMatch(ptr noundef %33, ptr noundef %34, ptr noundef %35, ptr noundef %36, i32 noundef %37, i32 noundef %38)
  store i64 %39, ptr %7, align 8
  br label %40

40:                                               ; preds = %28, %27
  %41 = load i64, ptr %7, align 8
  ret i64 %41
}

; Function Attrs: noinline nounwind uwtable
define internal i64 @ZSTD_BtFindBestMatch_dictMatchState_5(ptr noundef %0, ptr noundef %1, ptr noundef %2, ptr noundef %3) #7 {
  %5 = alloca ptr, align 8
  %6 = alloca ptr, align 8
  %7 = alloca ptr, align 8
  %8 = alloca ptr, align 8
  store ptr %0, ptr %5, align 8, !tbaa !3
  store ptr %1, ptr %6, align 8, !tbaa !8
  store ptr %2, ptr %7, align 8, !tbaa !8
  store ptr %3, ptr %8, align 8, !tbaa !66
  %9 = load ptr, ptr %5, align 8, !tbaa !3
  %10 = load ptr, ptr %6, align 8, !tbaa !8
  %11 = load ptr, ptr %7, align 8, !tbaa !8
  %12 = load ptr, ptr %8, align 8, !tbaa !66
  %13 = call i64 @ZSTD_BtFindBestMatch(ptr noundef %9, ptr noundef %10, ptr noundef %11, ptr noundef %12, i32 noundef 5, i32 noundef 2)
  ret i64 %13
}