; Function Attrs: nofree noinline norecurse nosync nounwind memory(readwrite, inaccessiblemem: none) uwtable
define internal fastcc i64 @ZSTD_BtFindBestMatch_dictMatchState_5(ptr noundef captures(none) %0, ptr noundef %1, ptr noundef captures(address) %2, ptr noundef nonnull captures(none) %3) unnamed_addr #6 {
  %5 = getelementptr inbounds nuw i8, ptr %0, i64 8
  %6 = load ptr, ptr %5, align 8, !tbaa !3
  %7 = getelementptr inbounds nuw i8, ptr %0, i64 44
  %8 = load i32, ptr %7, align 4, !tbaa !19
  %9 = zext i32 %8 to i64
  %10 = getelementptr inbounds nuw i8, ptr %6, i64 %9
  %11 = icmp ult ptr %1, %10
  br i1 %11, label %ZSTD_BtFindBestMatch.exit, label %12

12:                                               ; preds = %4
  %13 = getelementptr inbounds nuw i8, ptr %0, i64 112
  %14 = load ptr, ptr %13, align 8, !tbaa !16
  %15 = getelementptr inbounds nuw i8, ptr %0, i64 128
  %16 = load ptr, ptr %15, align 8, !tbaa !17
  %17 = getelementptr inbounds nuw i8, ptr %0, i64 260
  %18 = load i32, ptr %17, align 4, !tbaa !34
  %19 = add i32 %18, -1
  %notmask.i = shl nsw i32 -1, %19
  %20 = xor i32 %notmask.i, -1
  %21 = ptrtoint ptr %1 to i64
  %22 = ptrtoint ptr %6 to i64
  %23 = sub i64 %21, %22
  %24 = trunc i64 %23 to i32
  %25 = icmp ult i32 %8, %24
  br i1 %25, label %.lr.ph.i, label %ZSTD_updateDUBT.exit

.lr.ph.i:                                         ; preds = %12
  %26 = getelementptr inbounds nuw i8, ptr %0, i64 264
  %27 = load i32, ptr %26, align 4, !tbaa !33
  %28 = sub i32 64, %27
  %29 = zext nneg i32 %28 to i64
  %30 = and i64 %23, 4294967295
  br label %ZSTD_hashPtr.exit.us4.i

ZSTD_hashPtr.exit.us4.i:                          ; preds = %ZSTD_hashPtr.exit.us4.i, %.lr.ph.i
  %indvars.iv21.i = phi i64 [ %indvars.iv.next22.i, %ZSTD_hashPtr.exit.us4.i ], [ %9, %.lr.ph.i ]
  %31 = getelementptr inbounds nuw i8, ptr %6, i64 %indvars.iv21.i
  %.val33.us.i = load i64, ptr %31, align 1, !tbaa !24
  %32 = mul i64 %.val33.us.i, -3523014627271114752
  %33 = lshr i64 %32, %29
  %34 = getelementptr inbounds nuw i32, ptr %14, i64 %33
  %35 = load i32, ptr %34, align 4, !tbaa !23
  %36 = trunc nuw i64 %indvars.iv21.i to i32
  %37 = and i32 %36, %20
  %38 = shl nuw i32 %37, 1
  %39 = zext i32 %38 to i64
  %40 = getelementptr inbounds nuw i32, ptr %16, i64 %39
  %41 = getelementptr inbounds nuw i8, ptr %40, i64 4
  store i32 %36, ptr %34, align 4, !tbaa !23
  store i32 %35, ptr %40, align 4, !tbaa !23
  store i32 1, ptr %41, align 4, !tbaa !23
  %indvars.iv.next22.i = add nuw nsw i64 %indvars.iv21.i, 1
  %exitcond.not = icmp eq i64 %indvars.iv.next22.i, %30
  br i1 %exitcond.not, label %ZSTD_updateDUBT.exit, label %ZSTD_hashPtr.exit.us4.i, !llvm.loop !75

ZSTD_updateDUBT.exit:                             ; preds = %ZSTD_hashPtr.exit.us4.i, %12
  store i32 %24, ptr %7, align 4, !tbaa !19
  %42 = tail call fastcc i64 @ZSTD_DUBT_findBestMatch(ptr noundef %0, ptr noundef %1, ptr noundef %2, ptr noundef nonnull %3, i32 noundef 5, i32 noundef 2)
  br label %ZSTD_BtFindBestMatch.exit

ZSTD_BtFindBestMatch.exit:                        ; preds = %4, %ZSTD_updateDUBT.exit
  %.0.i = phi i64 [ %42, %ZSTD_updateDUBT.exit ], [ 0, %4 ]
  ret i64 %.0.i
}